; Function Attrs: mustprogress uwtable
define dso_local void @_ZN32cmCTestResourceGroupsLexerHelper16WriteRequirementEv(ptr noundef nonnull align 8 dereferenceable(80) %0) local_unnamed_addr #4 align 2 personality ptr @__gxx_personality_v0 {
  %2 = alloca %"struct.cmCTestTestHandler::cmCTestTestResourceRequirement", align 8
  %3 = getelementptr inbounds nuw i8, ptr %0, i64 16
  call void @_ZNSt7__cxx1112basic_stringIcSt11char_traitsIcESaIcEEC1ERKS4_(ptr noundef nonnull align 8 dereferenceable(32) %2, ptr noundef nonnull align 8 dereferenceable(32) %3)
  %4 = getelementptr inbounds nuw i8, ptr %2, i64 32
  %5 = getelementptr inbounds nuw i8, ptr %0, i64 48
  %6 = load i32, ptr %5, align 8
  store i32 %6, ptr %4, align 8
  %7 = getelementptr inbounds nuw i8, ptr %2, i64 36
  store i32 1, ptr %7, align 4
  %8 = getelementptr inbounds nuw i8, ptr %0, i64 64
  %9 = load ptr, ptr %8, align 8
  %10 = getelementptr inbounds nuw i8, ptr %0, i64 72
  %11 = load ptr, ptr %10, align 8
  %.not.i.i = icmp eq ptr %9, %11
  br i1 %.not.i.i, label %17, label %12

12:                                               ; preds = %1
  call void @_ZNSt7__cxx1112basic_stringIcSt11char_traitsIcESaIcEEC1EOS4_(ptr noundef nonnull align 8 dereferenceable(40) %9, ptr noundef nonnull align 8 dereferenceable(40) %2) #16
  %13 = getelementptr inbounds nuw i8, ptr %9, i64 32
  %14 = load i64, ptr %4, align 8
  store i64 %14, ptr %13, align 8
  %15 = load ptr, ptr %8, align 8
  %16 = getelementptr inbounds nuw i8, ptr %15, i64 40
  store ptr %16, ptr %8, align 8
  br label %_ZNSt6vectorIN18cmCTestTestHandler30cmCTestTestResourceRequirementESaIS1_EE9push_backEOS1_.exit

17:                                               ; preds = %1
  %18 = getelementptr inbounds nuw i8, ptr %0, i64 56
  invoke void @_ZNSt6vectorIN18cmCTestTestHandler30cmCTestTestResourceRequirementESaIS1_EE17_M_realloc_insertIJS1_EEEvN9__gnu_cxx17__normal_iteratorIPS1_S3_EEDpOT_(ptr noundef nonnull align 8 dereferenceable(24) %18, ptr %9, ptr noundef nonnull align 8 dereferenceable(40) %2)
          to label %_ZNSt6vectorIN18cmCTestTestHandler30cmCTestTestResourceRequirementESaIS1_EE9push_backEOS1_.exit unwind label %19

_ZNSt6vectorIN18cmCTestTestHandler30cmCTestTestResourceRequirementESaIS1_EE9push_backEOS1_.exit: ; preds = %12, %17
  call void @_ZNSt7__cxx1112basic_stringIcSt11char_traitsIcESaIcEED1Ev(ptr noundef nonnull align 8 dereferenceable(40) %2) #16
  ret void

19:                                               ; preds = %17
  %20 = landingpad { ptr, i32 }
          cleanup
  call void @_ZNSt7__cxx1112basic_stringIcSt11char_traitsIcESaIcEED1Ev(ptr noundef nonnull align 8 dereferenceable(40) %2) #16
  resume { ptr, i32 } %20
}